; Function Attrs: mustprogress nofree norecurse nosync nounwind willreturn memory(argmem: write) uwtable
define void @_ZN12vector_csr_tC2EP11processor_tmmm(ptr noundef nonnull writeonly align 8 captures(none) dereferenceable(56) initializes((0, 37), (40, 56)) %0, ptr noundef %1, i64 noundef %2, i64 noundef %3, i64 noundef %4) unnamed_addr #3 align 2 {
  %6 = getelementptr inbounds nuw i8, ptr %0, i64 8
  store ptr %1, ptr %6, align 8, !tbaa !6
  %7 = getelementptr inbounds nuw i8, ptr %0, i64 16
  %8 = getelementptr inbounds nuw i8, ptr %1, i64 248
  store ptr %8, ptr %7, align 8, !tbaa !15
  %9 = getelementptr inbounds nuw i8, ptr %0, i64 24
  store i64 %2, ptr %9, align 8, !tbaa !16
  %10 = getelementptr inbounds nuw i8, ptr %0, i64 32
  %11 = trunc i64 %2 to i32
  %12 = lshr i32 %11, 8
  %13 = and i32 %12, 3
  store i32 %13, ptr %10, align 8, !tbaa !17
  %14 = getelementptr inbounds nuw i8, ptr %0, i64 36
  %15 = and i64 %2, 3072
  %16 = icmp eq i64 %15, 3072
  %17 = zext i1 %16 to i8
  store i8 %17, ptr %14, align 4, !tbaa !18
  %18 = getelementptr inbounds nuw i8, ptr %0, i64 40
  store i64 %4, ptr %18, align 8, !tbaa !159
  store ptr getelementptr inbounds nuw inrange(-16, 48) (i8, ptr @_ZTV12vector_csr_t, i64 16), ptr %0, align 8, !tbaa !3
  %19 = getelementptr inbounds nuw i8, ptr %0, i64 48
  store i64 %3, ptr %19, align 8, !tbaa !267
  ret void
}